target datalayout = "e-m:e-p270:32:32-p271:32:32-p272:64:64-i64:64-i128:128-f80:128-n8:16:32:64-S128"
target triple = "x86_64-pc-linux-gnu"

%union.SourceSpan = type { i64 }
%struct.Int = type { %struct.Int128_, i32 }
%struct.Int128_ = type { i64, i64 }
%struct.Expr_ = type { ptr, %union.SourceSpan, i16, %union.anon.61 }
%union.anon.61 = type { %struct.ExprAnySwitch }
%struct.ExprAnySwitch = type { i8, %union.anon.63 }
%union.anon.63 = type { %struct.anon.64 }
%struct.anon.64 = type { ptr, %union.SourceSpan, ptr }
%struct.Type_ = type { i32, ptr, ptr, ptr, %union.anon.86, ptr, ptr, %union.anon.88 }
%union.anon.86 = type { ptr }
%union.anon.88 = type { %struct.TypeFunction }
%struct.TypeFunction = type { ptr, ptr, ptr }
%struct.ExprConst = type { i16, %union.anon.70 }
%union.anon.70 = type { %struct.Int }
%struct.TypeArray = type { ptr, i32 }

@.str.33 = private unnamed_addr constant [36 x i8] c"FATAL ERROR %s -> in %s @ in %s:%d \00", align 1
@.str.34 = private unnamed_addr constant [22 x i8] c"Should be unreachable\00", align 1
@.str.35 = private unnamed_addr constant [110 x i8] c"generated/home/dtcxzyw/WorkSpace/Projects/compilers/llvm-opt-benchmark/bench/c3c/c3c/src/compiler/sema_expr.c\00", align 1
@.str.179 = private unnamed_addr constant [74 x i8] c"The index cannot be stored in a 64-signed integer, which isn't supported.\00", align 1
@.str.180 = private unnamed_addr constant [61 x i8] c"Negative numbers are not allowed when indexing from the end.\00", align 1
@.str.181 = private unnamed_addr constant [51 x i8] c"End index out of bounds, was %lld, exceeding %lld.\00", align 1
@.str.182 = private unnamed_addr constant [36 x i8] c"Cannot index into a zero size list.\00", align 1
@.str.183 = private unnamed_addr constant [57 x i8] c"Index out of bounds, was %lld, exceeding maximum (%lld).\00", align 1
@.str.184 = private unnamed_addr constant [114 x i8] c"Array index out of bounds, index from end (%lld) must be greater than zero or it will exceed the max array index.\00", align 1
@__func__.sema_slice_index_is_in_range = private unnamed_addr constant [29 x i8] c"sema_slice_index_is_in_range\00", align 1
@.str.185 = private unnamed_addr constant [74 x i8] c"Index out of bounds, using a negative index is only allowed for pointers.\00", align 1

; Function Attrs: nounwind uwtable
define internal zeroext i1 @sema_slice_index_is_in_range(ptr noundef %0, ptr noundef %1, ptr noundef %2, i1 noundef zeroext %3, i1 noundef zeroext %4, ptr noundef %5) #0 {
  %7 = alloca ptr, align 8
  %8 = alloca i1, align 1
  %9 = alloca ptr, align 8
  %10 = alloca ptr, align 8
  %11 = alloca ptr, align 8
  %12 = alloca i8, align 1
  %13 = alloca i8, align 1
  %14 = alloca ptr, align 8
  %15 = alloca %struct.Int, align 8
  %16 = alloca i32, align 4
  %17 = alloca i32, align 4
  store ptr %0, ptr %9, align 8
  store ptr %1, ptr %10, align 8
  store ptr %2, ptr %11, align 8
  %18 = zext i1 %3 to i8
  store i8 %18, ptr %12, align 1
  %19 = zext i1 %4 to i8
  store i8 %19, ptr %13, align 1
  store ptr %5, ptr %14, align 8
  %20 = load ptr, ptr %11, align 8
  store ptr %20, ptr %7, align 8
  %21 = load ptr, ptr %7, align 8
  %22 = getelementptr inbounds %struct.Expr_, ptr %21, i32 0, i32 2
  %23 = load i16, ptr %22, align 8
  %24 = and i16 %23, 255
  %25 = zext i16 %24 to i32
  %26 = icmp eq i32 %25, 14
  br i1 %26, label %28, label %27

27:                                               ; preds = %6
  store i1 true, ptr %8, align 1
  br label %149

28:                                               ; preds = %6
  %29 = load ptr, ptr %11, align 8
  %30 = getelementptr inbounds %struct.Expr_, ptr %29, i32 0, i32 3
  %31 = getelementptr inbounds %struct.ExprConst, ptr %30, i32 0, i32 1
  call void @llvm.memcpy.p0.p0.i64(ptr align 8 %15, ptr align 8 %31, i64 24, i1 false)
  %32 = call zeroext i1 @int_fits(ptr noundef byval(%struct.Int) align 8 %15, i32 noundef 6)
  br i1 %32, label %38, label %33

33:                                               ; preds = %28
  %34 = load ptr, ptr %11, align 8
  %35 = getelementptr inbounds %struct.Expr_, ptr %34, i32 0, i32 1
  %36 = getelementptr inbounds %union.SourceSpan, ptr %35, i32 0, i32 0
  %37 = load i64, ptr %36, align 8
  call void (i64, ptr, ...) @sema_error_at(i64 %37, ptr noundef @.str.179)
  store i1 false, ptr %8, align 1
  br label %149

38:                                               ; preds = %28
  %39 = load i8, ptr %13, align 1
  %40 = trunc i8 %39 to i1
  br i1 %40, label %41, label %48

41:                                               ; preds = %38
  %42 = call zeroext i1 @int_is_neg(ptr noundef byval(%struct.Int) align 8 %15)
  br i1 %42, label %43, label %48

43:                                               ; preds = %41
  %44 = load ptr, ptr %11, align 8
  %45 = getelementptr inbounds %struct.Expr_, ptr %44, i32 0, i32 1
  %46 = getelementptr inbounds %union.SourceSpan, ptr %45, i32 0, i32 0
  %47 = load i64, ptr %46, align 8
  call void (i64, ptr, ...) @sema_error_at(i64 %47, ptr noundef @.str.180)
  store i1 false, ptr %8, align 1
  br label %149

48:                                               ; preds = %41, %38
  %49 = getelementptr inbounds %struct.Int, ptr %15, i32 0, i32 0
  %50 = getelementptr inbounds %struct.Int128_, ptr %49, i32 0, i32 1
  %51 = load i64, ptr %50, align 8
  %52 = trunc i64 %51 to i32
  store i32 %52, ptr %16, align 4
  %53 = load ptr, ptr %10, align 8
  %54 = getelementptr inbounds %struct.Type_, ptr %53, i32 0, i32 0
  %55 = load i32, ptr %54, align 8
  switch i32 %55, label %137 [
    i32 23, label %56
    i32 35, label %57
    i32 39, label %58
    i32 33, label %58
    i32 37, label %58
    i32 34, label %119
  ]

56:                                               ; preds = %48
  store i1 true, ptr %8, align 1
  br label %149

57:                                               ; preds = %48
  br label %140

58:                                               ; preds = %48, %48, %48
  %59 = load ptr, ptr %10, align 8
  %60 = getelementptr inbounds %struct.Type_, ptr %59, i32 0, i32 7
  %61 = getelementptr inbounds %struct.TypeArray, ptr %60, i32 0, i32 1
  %62 = load i32, ptr %61, align 8
  store i32 %62, ptr %17, align 4
  %63 = load i8, ptr %13, align 1
  %64 = trunc i8 %63 to i1
  br i1 %64, label %65, label %77

65:                                               ; preds = %58
  %66 = load i32, ptr %17, align 4
  %67 = load i32, ptr %16, align 4
  %68 = sub nsw i32 %66, %67
  store i32 %68, ptr %16, align 4
  %69 = load i32, ptr %16, align 4
  %70 = sext i32 %69 to i64
  %71 = load ptr, ptr %11, align 8
  %72 = getelementptr inbounds %struct.Expr_, ptr %71, i32 0, i32 3
  %73 = getelementptr inbounds %struct.ExprConst, ptr %72, i32 0, i32 1
  %74 = getelementptr inbounds %struct.Int, ptr %73, i32 0, i32 0
  %75 = getelementptr inbounds %struct.Int128_, ptr %74, i32 0, i32 1
  store i64 %70, ptr %75, align 8
  %76 = load ptr, ptr %14, align 8
  store i8 1, ptr %76, align 1
  br label %77

77:                                               ; preds = %65, %58
  %78 = load i8, ptr %12, align 1
  %79 = trunc i8 %78 to i1
  br i1 %79, label %80, label %93

80:                                               ; preds = %77
  %81 = load i32, ptr %16, align 4
  %82 = load i32, ptr %17, align 4
  %83 = icmp sge i32 %81, %82
  br i1 %83, label %84, label %93

84:                                               ; preds = %80
  %85 = load ptr, ptr %11, align 8
  %86 = getelementptr inbounds %struct.Expr_, ptr %85, i32 0, i32 1
  %87 = load i32, ptr %16, align 4
  %88 = sext i32 %87 to i64
  %89 = load i32, ptr %17, align 4
  %90 = sext i32 %89 to i64
  %91 = getelementptr inbounds %union.SourceSpan, ptr %86, i32 0, i32 0
  %92 = load i64, ptr %91, align 8
  call void (i64, ptr, ...) @sema_error_at(i64 %92, ptr noundef @.str.181, i64 noundef %88, i64 noundef %90)
  store i1 false, ptr %8, align 1
  br label %149

93:                                               ; preds = %80, %77
  %94 = load i8, ptr %12, align 1
  %95 = trunc i8 %94 to i1
  br i1 %95, label %118, label %96

96:                                               ; preds = %93
  %97 = load i32, ptr %16, align 4
  %98 = load i32, ptr %17, align 4
  %99 = icmp sge i32 %97, %98
  br i1 %99, label %100, label %118

100:                                              ; preds = %96
  %101 = load i32, ptr %17, align 4
  %102 = icmp eq i32 %101, 0
  br i1 %102, label %103, label %108

103:                                              ; preds = %100
  %104 = load ptr, ptr %11, align 8
  %105 = getelementptr inbounds %struct.Expr_, ptr %104, i32 0, i32 1
  %106 = getelementptr inbounds %union.SourceSpan, ptr %105, i32 0, i32 0
  %107 = load i64, ptr %106, align 8
  call void (i64, ptr, ...) @sema_error_at(i64 %107, ptr noundef @.str.182)
  store i1 false, ptr %8, align 1
  br label %149

108:                                              ; preds = %100
  %109 = load ptr, ptr %11, align 8
  %110 = getelementptr inbounds %struct.Expr_, ptr %109, i32 0, i32 1
  %111 = load i32, ptr %16, align 4
  %112 = sext i32 %111 to i64
  %113 = load i32, ptr %17, align 4
  %114 = sext i32 %113 to i64
  %115 = sub nsw i64 %114, 1
  %116 = getelementptr inbounds %union.SourceSpan, ptr %110, i32 0, i32 0
  %117 = load i64, ptr %116, align 8
  call void (i64, ptr, ...) @sema_error_at(i64 %117, ptr noundef @.str.183, i64 noundef %112, i64 noundef %115)
  store i1 false, ptr %8, align 1
  br label %149

118:                                              ; preds = %96, %93
  br label %140

119:                                              ; preds = %48
  %120 = load i8, ptr %13, align 1
  %121 = trunc i8 %120 to i1
  br i1 %121, label %123, label %122

122:                                              ; preds = %119
  br label %140

123:                                              ; preds = %119
  %124 = load i32, ptr %16, align 4
  %125 = icmp eq i32 %124, 0
  br i1 %125, label %126, label %136

126:                                              ; preds = %123
  %127 = load i8, ptr %12, align 1
  %128 = trunc i8 %127 to i1
  br i1 %128, label %136, label %129

129:                                              ; preds = %126
  %130 = load ptr, ptr %11, align 8
  %131 = getelementptr inbounds %struct.Expr_, ptr %130, i32 0, i32 1
  %132 = load i32, ptr %16, align 4
  %133 = sext i32 %132 to i64
  %134 = getelementptr inbounds %union.SourceSpan, ptr %131, i32 0, i32 0
  %135 = load i64, ptr %134, align 8
  call void (i64, ptr, ...) @sema_error_at(i64 %135, ptr noundef @.str.184, i64 noundef %133)
  store i1 false, ptr %8, align 1
  br label %149

136:                                              ; preds = %126, %123
  store i1 true, ptr %8, align 1
  br label %149

137:                                              ; preds = %48
  br label %138

138:                                              ; preds = %137
  call void (ptr, ...) @error_exit(ptr noundef @.str.33, ptr noundef @.str.34, ptr noundef @__func__.sema_slice_index_is_in_range, ptr noundef @.str.35, i32 noundef 2474) #6
  unreachable

139:                                              ; No predecessors!
  br label %140

140:                                              ; preds = %139, %122, %118, %57
  %141 = load i32, ptr %16, align 4
  %142 = icmp slt i32 %141, 0
  br i1 %142, label %143, label %148

143:                                              ; preds = %140
  %144 = load ptr, ptr %11, align 8
  %145 = getelementptr inbounds %struct.Expr_, ptr %144, i32 0, i32 1
  %146 = getelementptr inbounds %union.SourceSpan, ptr %145, i32 0, i32 0
  %147 = load i64, ptr %146, align 8
  call void (i64, ptr, ...) @sema_error_at(i64 %147, ptr noundef @.str.185)
  store i1 false, ptr %8, align 1
  br label %149

148:                                              ; preds = %140
  store i1 true, ptr %8, align 1
  br label %149

149:                                              ; preds = %148, %143, %136, %129, %108, %103, %84, %56, %43, %33, %27
  %150 = load i1, ptr %8, align 1
  ret i1 %150
}