; Function Attrs: nounwind uwtable
define internal fastcc noundef zeroext i1 @sema_slice_index_is_in_range(ptr nocapture noundef readonly %0, ptr nocapture noundef %1, i1 noundef zeroext %2, i1 noundef zeroext %3, ptr nocapture noundef writeonly %4) unnamed_addr #0 {
  %6 = alloca %struct.Int, align 8
  %7 = getelementptr inbounds i8, ptr %1, i64 16
  %8 = load i16, ptr %7, align 8
  %9 = and i16 %8, 255
  %10 = icmp eq i16 %9, 14
  br i1 %10, label %11, label %64

11:                                               ; preds = %5
  %12 = getelementptr inbounds i8, ptr %1, i64 32
  call void @llvm.memcpy.p0.p0.i64(ptr noundef nonnull align 8 dereferenceable(24) %6, ptr noundef nonnull align 8 dereferenceable(24) %12, i64 24, i1 false)
  %13 = tail call zeroext i1 @int_fits(ptr noundef nonnull byval(%struct.Int) align 8 %12, i32 noundef 6) #13
  br i1 %13, label %17, label %14

14:                                               ; preds = %11
  %15 = getelementptr inbounds i8, ptr %1, i64 8
  %16 = load i64, ptr %15, align 8
  tail call void (i64, ptr, ...) @sema_error_at(i64 %16, ptr noundef nonnull @.str.179) #13
  br label %64

17:                                               ; preds = %11
  br i1 %3, label %18, label %23

18:                                               ; preds = %17
  %19 = tail call zeroext i1 @int_is_neg(ptr noundef nonnull byval(%struct.Int) align 8 %6) #13
  br i1 %19, label %20, label %23

20:                                               ; preds = %18
  %21 = getelementptr inbounds i8, ptr %1, i64 8
  %22 = load i64, ptr %21, align 8
  tail call void (i64, ptr, ...) @sema_error_at(i64 %22, ptr noundef nonnull @.str.180) #13
  br label %64

23:                                               ; preds = %18, %17
  %24 = getelementptr inbounds i8, ptr %6, i64 8
  %25 = load i64, ptr %24, align 8
  %26 = trunc i64 %25 to i32
  %27 = load i32, ptr %0, align 8
  switch i32 %27, label %58 [
    i32 23, label %64
    i32 35, label %59
    i32 39, label %28
    i32 33, label %28
    i32 37, label %28
    i32 34, label %52
  ]

28:                                               ; preds = %23, %23, %23
  %29 = getelementptr inbounds i8, ptr %0, i64 64
  %30 = load i32, ptr %29, align 8
  br i1 %3, label %31, label %35

31:                                               ; preds = %28
  %32 = sub nsw i32 %30, %26
  %33 = sext i32 %32 to i64
  %34 = getelementptr inbounds i8, ptr %1, i64 40
  store i64 %33, ptr %34, align 8
  store i8 1, ptr %4, align 1
  br label %35

35:                                               ; preds = %31, %28
  %.035 = phi i32 [ %32, %31 ], [ %26, %28 ]
  %.not40 = xor i1 %2, true
  %.not = icmp slt i32 %.035, %30
  %or.cond = select i1 %.not40, i1 true, i1 %.not
  br i1 %or.cond, label %41, label %36

36:                                               ; preds = %35
  %37 = getelementptr inbounds i8, ptr %1, i64 8
  %38 = sext i32 %.035 to i64
  %39 = sext i32 %30 to i64
  %40 = load i64, ptr %37, align 8
  tail call void (i64, ptr, ...) @sema_error_at(i64 %40, ptr noundef nonnull @.str.181, i64 noundef %38, i64 noundef %39) #13
  br label %64

41:                                               ; preds = %35
  %or.cond41 = select i1 %2, i1 true, i1 %.not
  br i1 %or.cond41, label %59, label %42

42:                                               ; preds = %41
  %43 = icmp eq i32 %30, 0
  %44 = getelementptr inbounds i8, ptr %1, i64 8
  br i1 %43, label %45, label %47

45:                                               ; preds = %42
  %46 = load i64, ptr %44, align 8
  tail call void (i64, ptr, ...) @sema_error_at(i64 %46, ptr noundef nonnull @.str.182) #13
  br label %64

47:                                               ; preds = %42
  %48 = sext i32 %.035 to i64
  %49 = sext i32 %30 to i64
  %50 = add nsw i64 %49, -1
  %51 = load i64, ptr %44, align 8
  tail call void (i64, ptr, ...) @sema_error_at(i64 %51, ptr noundef nonnull @.str.183, i64 noundef %48, i64 noundef %50) #13
  br label %64

52:                                               ; preds = %23
  br i1 %3, label %53, label %59

53:                                               ; preds = %52
  %54 = icmp ne i32 %26, 0
  %brmerge = or i1 %54, %2
  br i1 %brmerge, label %64, label %55

55:                                               ; preds = %53
  %56 = getelementptr inbounds i8, ptr %1, i64 8
  %57 = load i64, ptr %56, align 8
  tail call void (i64, ptr, ...) @sema_error_at(i64 %57, ptr noundef nonnull @.str.184, i64 noundef 0) #13
  br label %64

58:                                               ; preds = %23
  tail call void (ptr, ...) @error_exit(ptr noundef nonnull @.str.33, ptr noundef nonnull @.str.34, ptr noundef nonnull @__func__.sema_slice_index_is_in_range, ptr noundef nonnull @.str.35, i32 noundef 2474) #14
  unreachable

59:                                               ; preds = %52, %41, %23
  %.1 = phi i32 [ %26, %52 ], [ %.035, %41 ], [ %26, %23 ]
  %60 = icmp slt i32 %.1, 0
  br i1 %60, label %61, label %64

61:                                               ; preds = %59
  %62 = getelementptr inbounds i8, ptr %1, i64 8
  %63 = load i64, ptr %62, align 8
  tail call void (i64, ptr, ...) @sema_error_at(i64 %63, ptr noundef nonnull @.str.185) #13
  br label %64

64:                                               ; preds = %59, %53, %23, %5, %61, %55, %47, %45, %36, %20, %14
  %.0 = phi i1 [ false, %20 ], [ false, %55 ], [ false, %61 ], [ false, %36 ], [ false, %45 ], [ false, %47 ], [ false, %14 ], [ true, %5 ], [ true, %23 ], [ true, %53 ], [ true, %59 ]
  ret i1 %.0
}